; ModuleID = '34/2052.c'
source_filename = "34/2052.c"
target datalayout = "e-m:e-p270:32:32-p271:32:32-p272:64:64-i64:64-f80:128-n8:16:32:64-S128"
target triple = "x86_64-pc-linux-gnu"

@.str = private unnamed_addr constant [3 x i8] c"%d\00", align 1
@.str.1 = private unnamed_addr constant [10 x i8] c"%d*3+1=%d\00", align 1
@.str.2 = private unnamed_addr constant [11 x i8] c"\0A%d*3+1=%d\00", align 1
@.str.3 = private unnamed_addr constant [8 x i8] c"%d/2=%d\00", align 1
@.str.4 = private unnamed_addr constant [9 x i8] c"\0A%d/2=%d\00", align 1
@.str.5 = private unnamed_addr constant [5 x i8] c"\0AEnd\00", align 1

; Function Attrs: noinline nounwind uwtable
define dso_local i32 @main() #0 {
  %1 = alloca i32, align 4
  %2 = alloca i32, align 4
  %3 = alloca i32, align 4
  %4 = alloca i32, align 4
  %5 = alloca i32, align 4
  store i32 0, i32* %1, align 4
  store i32 0, i32* %3, align 4
  %6 = call i32 (i8*, ...) @__isoc99_scanf(i8* getelementptr inbounds ([3 x i8], [3 x i8]* @.str, i64 0, i64 0), i32* %2)
  br label %7

7:                                                ; preds = %57, %0
  %8 = load i32, i32* %2, align 4
  %9 = icmp ne i32 %8, 1
  br i1 %9, label %10, label %58

10:                                               ; preds = %7
  %11 = load i32, i32* %2, align 4
  %12 = srem i32 %11, 2
  %13 = icmp eq i32 %12, 1
  br i1 %13, label %14, label %36

14:                                               ; preds = %10
  %15 = load i32, i32* %3, align 4
  %16 = add nsw i32 %15, 1
  store i32 %16, i32* %3, align 4
  %17 = load i32, i32* %2, align 4
  store i32 %17, i32* %4, align 4
  %18 = load i32, i32* %2, align 4
  %19 = mul nsw i32 3, %18
  %20 = add nsw i32 %19, 1
  store i32 %20, i32* %2, align 4
  %21 = load i32, i32* %3, align 4
  %22 = icmp eq i32 %21, 1
  br i1 %22, label %23, label %27

23:                                               ; preds = %14
  %24 = load i32, i32* %4, align 4
  %25 = load i32, i32* %2, align 4
  %26 = call i32 (i8*, ...) @printf(i8* getelementptr inbounds ([10 x i8], [10 x i8]* @.str.1, i64 0, i64 0), i32 %24, i32 %25)
  br label %35

27:                                               ; preds = %14
  %28 = load i32, i32* %3, align 4
  %29 = icmp sgt i32 %28, 1
  br i1 %29, label %30, label %34

30:                                               ; preds = %27
  %31 = load i32, i32* %4, align 4
  %32 = load i32, i32* %2, align 4
  %33 = call i32 (i8*, ...) @printf(i8* getelementptr inbounds ([11 x i8], [11 x i8]* @.str.2, i64 0, i64 0), i32 %31, i32 %32)
  br label %34

34:                                               ; preds = %30, %27
  br label %35

35:                                               ; preds = %34, %23
  br label %57

36:                                               ; preds = %10
  %37 = load i32, i32* %3, align 4
  %38 = add nsw i32 %37, 1
  store i32 %38, i32* %3, align 4
  %39 = load i32, i32* %2, align 4
  store i32 %39, i32* %5, align 4
  %40 = load i32, i32* %2, align 4
  %41 = sdiv i32 %40, 2
  store i32 %41, i32* %2, align 4
  %42 = load i32, i32* %3, align 4
  %43 = icmp eq i32 %42, 1
  br i1 %43, label %44, label %48

44:                                               ; preds = %36
  %45 = load i32, i32* %5, align 4
  %46 = load i32, i32* %2, align 4
  %47 = call i32 (i8*, ...) @printf(i8* getelementptr inbounds ([8 x i8], [8 x i8]* @.str.3, i64 0, i64 0), i32 %45, i32 %46)
  br label %56

48:                                               ; preds = %36
  %49 = load i32, i32* %3, align 4
  %50 = icmp sgt i32 %49, 1
  br i1 %50, label %51, label %55

51:                                               ; preds = %48
  %52 = load i32, i32* %5, align 4
  %53 = load i32, i32* %2, align 4
  %54 = call i32 (i8*, ...) @printf(i8* getelementptr inbounds ([9 x i8], [9 x i8]* @.str.4, i64 0, i64 0), i32 %52, i32 %53)
  br label %55

55:                                               ; preds = %51, %48
  br label %56

56:                                               ; preds = %55, %44
  br label %57

57:                                               ; preds = %56, %35
  br label %7

58:                                               ; preds = %7
  %59 = call i32 (i8*, ...) @printf(i8* getelementptr inbounds ([5 x i8], [5 x i8]* @.str.5, i64 0, i64 0))
  ret i32 0
}

declare dso_local i32 @__isoc99_scanf(i8*, ...) #1

declare dso_local i32 @printf(i8*, ...) #1


!llvm.module.flags = !{!0}
!llvm.ident = !{!1}

!0 = !{i32 1, !"wchar_size", i32 4}
!1 = !{!"clang version 10.0.0-4ubuntu1 "}
